; ModuleID = '22/491.c'
source_filename = "22/491.c"
target datalayout = "e-m:e-p270:32:32-p271:32:32-p272:64:64-i64:64-f80:128-n8:16:32:64-S128"
target triple = "x86_64-pc-linux-gnu"

@.str = private unnamed_addr constant [3 x i8] c"%d\00", align 1
@.str.1 = private unnamed_addr constant [3 x i8] c"No\00", align 1

; Function Attrs: noinline nounwind uwtable
define dso_local i32 @maxaaaa(i32 %0, i32 %1) #0 {
  %3 = alloca i32, align 4
  %4 = alloca i32, align 4
  %5 = alloca i32, align 4
  store i32 %0, i32* %3, align 4
  store i32 %1, i32* %4, align 4
  %6 = load i32, i32* %3, align 4
  %7 = load i32, i32* %4, align 4
  %8 = icmp sgt i32 %6, %7
  br i1 %8, label %9, label %11

9:                                                ; preds = %2
  %10 = load i32, i32* %3, align 4
  store i32 %10, i32* %5, align 4
  br label %13

11:                                               ; preds = %2
  %12 = load i32, i32* %4, align 4
  store i32 %12, i32* %5, align 4
  br label %13

13:                                               ; preds = %11, %9
  %14 = load i32, i32* %5, align 4
  ret i32 %14
}

; Function Attrs: noinline nounwind uwtable
define dso_local i32 @minaaaa(i32 %0, i32 %1) #0 {
  %3 = alloca i32, align 4
  %4 = alloca i32, align 4
  %5 = alloca i32, align 4
  store i32 %0, i32* %3, align 4
  store i32 %1, i32* %4, align 4
  %6 = load i32, i32* %3, align 4
  %7 = load i32, i32* %4, align 4
  %8 = icmp sgt i32 %6, %7
  br i1 %8, label %9, label %11

9:                                                ; preds = %2
  %10 = load i32, i32* %4, align 4
  store i32 %10, i32* %5, align 4
  br label %13

11:                                               ; preds = %2
  %12 = load i32, i32* %3, align 4
  store i32 %12, i32* %5, align 4
  br label %13

13:                                               ; preds = %11, %9
  %14 = load i32, i32* %5, align 4
  ret i32 %14
}

; Function Attrs: noinline nounwind uwtable
define dso_local i32 @main() #0 {
  %1 = alloca i32, align 4
  %2 = alloca i32, align 4
  %3 = alloca i32, align 4
  %4 = alloca i32, align 4
  %5 = alloca [1000 x i32], align 16
  %6 = alloca i32, align 4
  %7 = alloca i32, align 4
  %8 = alloca i8, align 1
  store i32 0, i32* %1, align 4
  store i32 1, i32* %2, align 4
  br label %9

9:                                                ; preds = %22, %0
  %10 = load i32, i32* %2, align 4
  %11 = sub nsw i32 %10, 1
  %12 = sext i32 %11 to i64
  %13 = getelementptr inbounds [1000 x i32], [1000 x i32]* %5, i64 0, i64 %12
  %14 = call i32 (i8*, ...) @__isoc99_scanf(i8* getelementptr inbounds ([3 x i8], [3 x i8]* @.str, i64 0, i64 0), i32* %13)
  %15 = call i32 @getchar()
  %16 = trunc i32 %15 to i8
  store i8 %16, i8* %8, align 1
  %17 = load i8, i8* %8, align 1
  %18 = sext i8 %17 to i32
  %19 = icmp eq i32 %18, 10
  br i1 %19, label %20, label %21

20:                                               ; preds = %9
  br label %25

21:                                               ; preds = %9
  br label %22

22:                                               ; preds = %21
  %23 = load i32, i32* %2, align 4
  %24 = add nsw i32 %23, 1
  store i32 %24, i32* %2, align 4
  br label %9

25:                                               ; preds = %20
  %26 = load i32, i32* %2, align 4
  %27 = icmp eq i32 %26, 1
  br i1 %27, label %28, label %30

28:                                               ; preds = %25
  %29 = call i32 (i8*, ...) @printf(i8* getelementptr inbounds ([3 x i8], [3 x i8]* @.str.1, i64 0, i64 0))
  br label %112

30:                                               ; preds = %25
  %31 = load i32, i32* %2, align 4
  store i32 %31, i32* %4, align 4
  br label %32

32:                                               ; preds = %75, %30
  %33 = load i32, i32* %4, align 4
  %34 = icmp sge i32 %33, 1
  br i1 %34, label %35, label %78

35:                                               ; preds = %32
  store i32 1, i32* %3, align 4
  br label %36

36:                                               ; preds = %71, %35
  %37 = load i32, i32* %3, align 4
  %38 = load i32, i32* %4, align 4
  %39 = sub nsw i32 %38, 1
  %40 = icmp sle i32 %37, %39
  br i1 %40, label %41, label %74

41:                                               ; preds = %36
  %42 = load i32, i32* %3, align 4
  %43 = sext i32 %42 to i64
  %44 = getelementptr inbounds [1000 x i32], [1000 x i32]* %5, i64 0, i64 %43
  %45 = load i32, i32* %44, align 4
  %46 = load i32, i32* %3, align 4
  %47 = sub nsw i32 %46, 1
  %48 = sext i32 %47 to i64
  %49 = getelementptr inbounds [1000 x i32], [1000 x i32]* %5, i64 0, i64 %48
  %50 = load i32, i32* %49, align 4
  %51 = call i32 @minaaaa(i32 %45, i32 %50)
  store i32 %51, i32* %7, align 4
  %52 = load i32, i32* %3, align 4
  %53 = sext i32 %52 to i64
  %54 = getelementptr inbounds [1000 x i32], [1000 x i32]* %5, i64 0, i64 %53
  %55 = load i32, i32* %54, align 4
  %56 = load i32, i32* %3, align 4
  %57 = sub nsw i32 %56, 1
  %58 = sext i32 %57 to i64
  %59 = getelementptr inbounds [1000 x i32], [1000 x i32]* %5, i64 0, i64 %58
  %60 = load i32, i32* %59, align 4
  %61 = call i32 @maxaaaa(i32 %55, i32 %60)
  store i32 %61, i32* %6, align 4
  %62 = load i32, i32* %6, align 4
  %63 = load i32, i32* %3, align 4
  %64 = sext i32 %63 to i64
  %65 = getelementptr inbounds [1000 x i32], [1000 x i32]* %5, i64 0, i64 %64
  store i32 %62, i32* %65, align 4
  %66 = load i32, i32* %7, align 4
  %67 = load i32, i32* %3, align 4
  %68 = sub nsw i32 %67, 1
  %69 = sext i32 %68 to i64
  %70 = getelementptr inbounds [1000 x i32], [1000 x i32]* %5, i64 0, i64 %69
  store i32 %66, i32* %70, align 4
  br label %71

71:                                               ; preds = %41
  %72 = load i32, i32* %3, align 4
  %73 = add nsw i32 %72, 1
  store i32 %73, i32* %3, align 4
  br label %36

74:                                               ; preds = %36
  br label %75

75:                                               ; preds = %74
  %76 = load i32, i32* %4, align 4
  %77 = add nsw i32 %76, -1
  store i32 %77, i32* %4, align 4
  br label %32

78:                                               ; preds = %32
  %79 = load i32, i32* %2, align 4
  store i32 %79, i32* %4, align 4
  br label %80

80:                                               ; preds = %103, %78
  %81 = load i32, i32* %4, align 4
  %82 = icmp sge i32 %81, 2
  br i1 %82, label %83, label %106

83:                                               ; preds = %80
  %84 = load i32, i32* %4, align 4
  %85 = sub nsw i32 %84, 1
  %86 = sext i32 %85 to i64
  %87 = getelementptr inbounds [1000 x i32], [1000 x i32]* %5, i64 0, i64 %86
  %88 = load i32, i32* %87, align 4
  %89 = load i32, i32* %4, align 4
  %90 = sub nsw i32 %89, 2
  %91 = sext i32 %90 to i64
  %92 = getelementptr inbounds [1000 x i32], [1000 x i32]* %5, i64 0, i64 %91
  %93 = load i32, i32* %92, align 4
  %94 = icmp sgt i32 %88, %93
  br i1 %94, label %95, label %102

95:                                               ; preds = %83
  %96 = load i32, i32* %4, align 4
  %97 = sub nsw i32 %96, 2
  %98 = sext i32 %97 to i64
  %99 = getelementptr inbounds [1000 x i32], [1000 x i32]* %5, i64 0, i64 %98
  %100 = load i32, i32* %99, align 4
  %101 = call i32 (i8*, ...) @printf(i8* getelementptr inbounds ([3 x i8], [3 x i8]* @.str, i64 0, i64 0), i32 %100)
  br label %106

102:                                              ; preds = %83
  br label %103

103:                                              ; preds = %102
  %104 = load i32, i32* %4, align 4
  %105 = add nsw i32 %104, -1
  store i32 %105, i32* %4, align 4
  br label %80

106:                                              ; preds = %95, %80
  %107 = load i32, i32* %4, align 4
  %108 = icmp eq i32 %107, 1
  br i1 %108, label %109, label %111

109:                                              ; preds = %106
  %110 = call i32 (i8*, ...) @printf(i8* getelementptr inbounds ([3 x i8], [3 x i8]* @.str.1, i64 0, i64 0))
  br label %111

111:                                              ; preds = %109, %106
  br label %112

112:                                              ; preds = %111, %28
  ret i32 0
}

declare dso_local i32 @__isoc99_scanf(i8*, ...) #1

declare dso_local i32 @getchar() #1

declare dso_local i32 @printf(i8*, ...) #1


!llvm.module.flags = !{!0}
!llvm.ident = !{!1}

!0 = !{i32 1, !"wchar_size", i32 4}
!1 = !{!"clang version 10.0.0-4ubuntu1 "}
